target datalayout = "e-m:e-p270:32:32-p271:32:32-p272:64:64-i64:64-i128:128-f80:128-n8:16:32:64-S128"
target triple = "x86_64-pc-linux-gnu"

%"class.cv::detail::tracking::contrib_feature::CvParams" = type { ptr, %"class.std::__cxx11::basic_string" }
%"class.std::__cxx11::basic_string" = type { %"struct.std::__cxx11::basic_string<char>::_Alloc_hider", i64, %union.anon }
%"struct.std::__cxx11::basic_string<char>::_Alloc_hider" = type { ptr }
%union.anon = type { i64, [8 x i8] }
%"class.cv::detail::tracking::contrib_feature::CvFeatureParams" = type <{ %"class.cv::detail::tracking::contrib_feature::CvParams", i32, i32, i32, [4 x i8] }>
%"class.cv::detail::tracking::contrib_feature::CvHaarFeatureParams" = type { %"class.cv::detail::tracking::contrib_feature::CvFeatureParams.base", i8, [3 x i8] }
%"class.cv::detail::tracking::contrib_feature::CvFeatureParams.base" = type <{ %"class.cv::detail::tracking::contrib_feature::CvParams", i32, i32, i32 }>

; Function Attrs: mustprogress nounwind uwtable
define hidden void @_ZN2cv6detail8tracking15contrib_feature15CvFeatureParams4initERKS3_(ptr noundef nonnull align 8 dereferenceable(52) %0, ptr noundef nonnull align 8 dereferenceable(52) %1) unnamed_addr #6 align 2 {
  %3 = alloca ptr, align 8
  %4 = alloca ptr, align 8
  store ptr %0, ptr %3, align 8, !tbaa !19
  store ptr %1, ptr %4, align 8, !tbaa !19
  %5 = load ptr, ptr %3, align 8
  %6 = load ptr, ptr %4, align 8, !tbaa !19
  %7 = getelementptr inbounds nuw %"class.cv::detail::tracking::contrib_feature::CvFeatureParams", ptr %6, i32 0, i32 1
  %8 = load i32, ptr %7, align 8, !tbaa !21
  %9 = getelementptr inbounds nuw %"class.cv::detail::tracking::contrib_feature::CvFeatureParams", ptr %5, i32 0, i32 1
  store i32 %8, ptr %9, align 8, !tbaa !21
  %10 = load ptr, ptr %4, align 8, !tbaa !19
  %11 = getelementptr inbounds nuw %"class.cv::detail::tracking::contrib_feature::CvFeatureParams", ptr %10, i32 0, i32 2
  %12 = load i32, ptr %11, align 4, !tbaa !28
  %13 = getelementptr inbounds nuw %"class.cv::detail::tracking::contrib_feature::CvFeatureParams", ptr %5, i32 0, i32 2
  store i32 %12, ptr %13, align 4, !tbaa !28
  %14 = load ptr, ptr %4, align 8, !tbaa !19
  %15 = getelementptr inbounds nuw %"class.cv::detail::tracking::contrib_feature::CvFeatureParams", ptr %14, i32 0, i32 3
  %16 = load i32, ptr %15, align 8, !tbaa !29
  %17 = getelementptr inbounds nuw %"class.cv::detail::tracking::contrib_feature::CvFeatureParams", ptr %5, i32 0, i32 3
  store i32 %16, ptr %17, align 8, !tbaa !29
  ret void
}

; Function Attrs: mustprogress nounwind uwtable
define hidden void @_ZN2cv6detail8tracking15contrib_feature19CvHaarFeatureParams4initERKNS2_15CvFeatureParamsE(ptr noundef nonnull align 8 dereferenceable(53) %0, ptr noundef nonnull align 8 dereferenceable(52) %1) unnamed_addr #6 align 2 {
  %3 = alloca ptr, align 8
  %4 = alloca ptr, align 8
  store ptr %0, ptr %3, align 8, !tbaa !49
  store ptr %1, ptr %4, align 8, !tbaa !19
  %5 = load ptr, ptr %3, align 8
  %6 = load ptr, ptr %4, align 8, !tbaa !19
  call void @_ZN2cv6detail8tracking15contrib_feature15CvFeatureParams4initERKS3_(ptr noundef nonnull align 8 dereferenceable(52) %5, ptr noundef nonnull align 8 dereferenceable(52) %6)
  %7 = load ptr, ptr %4, align 8, !tbaa !19
  %8 = getelementptr inbounds nuw %"class.cv::detail::tracking::contrib_feature::CvHaarFeatureParams", ptr %7, i32 0, i32 1
  %9 = load i8, ptr %8, align 4, !tbaa !89, !range !92, !noundef !93
  %10 = trunc i8 %9 to i1
  %11 = getelementptr inbounds nuw %"class.cv::detail::tracking::contrib_feature::CvHaarFeatureParams", ptr %5, i32 0, i32 1
  %12 = zext i1 %10 to i8
  store i8 %12, ptr %11, align 4, !tbaa !89
  ret void
}